; Function Attrs: mustprogress nounwind uwtable
define void @_ZN3spv11SpirvStream8formatIdEjRNSt7__cxx1118basic_stringstreamIcSt11char_traitsIcESaIcEEE(ptr nocapture noundef nonnull readonly align 8 dereferenceable(180) %0, i32 noundef %1, ptr noundef nonnull align 8 dereferenceable(128) %2) local_unnamed_addr #3 align 2 {
  %.not = icmp eq i32 %1, 0
  br i1 %.not, label %28, label %4

4:                                                ; preds = %3
  %5 = getelementptr inbounds i8, ptr %0, i64 32
  %6 = load i32, ptr %5, align 8
  %.not7 = icmp ugt i32 %6, %1
  br i1 %.not7, label %14, label %7

7:                                                ; preds = %4
  %8 = getelementptr inbounds i8, ptr %0, i64 8
  %9 = load ptr, ptr %8, align 8
  %10 = tail call noundef nonnull align 8 dereferenceable(8) ptr @_ZNSolsEPFRSoS_E(ptr noundef nonnull align 8 dereferenceable(8) %9, ptr noundef nonnull @_ZSt4endlIcSt11char_traitsIcEERSt13basic_ostreamIT_T0_ES6_) #18
  %11 = tail call noundef nonnull align 8 dereferenceable(8) ptr @_ZStlsISt11char_traitsIcEERSt13basic_ostreamIcT_ES5_PKc(ptr noundef nonnull align 8 dereferenceable(8) %10, ptr noundef nonnull @.str.66) #18
  %12 = tail call noundef nonnull align 8 dereferenceable(8) ptr @_ZStlsISt11char_traitsIcEERSt13basic_ostreamIcT_ES5_PKc(ptr noundef nonnull align 8 dereferenceable(8) %11, ptr noundef nonnull @.str.11) #18
  %13 = tail call noundef nonnull align 8 dereferenceable(8) ptr @_ZNSolsEPFRSoS_E(ptr noundef nonnull align 8 dereferenceable(8) %12, ptr noundef nonnull @_ZSt4endlIcSt11char_traitsIcEERSt13basic_ostreamIT_T0_ES6_) #18
  tail call void @exit(i32 noundef 1) #19
  unreachable

14:                                               ; preds = %4
  %15 = getelementptr inbounds i8, ptr %2, i64 16
  %16 = tail call noundef nonnull align 8 dereferenceable(8) ptr @_ZNSolsEj(ptr noundef nonnull align 8 dereferenceable(8) %15, i32 noundef %1) #18
  %17 = getelementptr inbounds i8, ptr %0, i64 64
  %18 = zext i32 %1 to i64
  %19 = load ptr, ptr %17, align 8
  %20 = getelementptr inbounds %"class.std::__cxx11::basic_string", ptr %19, i64 %18
  %21 = tail call noundef i64 @_ZNKSt7__cxx1112basic_stringIcSt11char_traitsIcESaIcEE4sizeEv(ptr noundef nonnull align 8 dereferenceable(32) %20) #18
  %.not8 = icmp eq i64 %21, 0
  br i1 %.not8, label %28, label %22

22:                                               ; preds = %14
  %23 = tail call noundef nonnull align 8 dereferenceable(8) ptr @_ZStlsISt11char_traitsIcEERSt13basic_ostreamIcT_ES5_PKc(ptr noundef nonnull align 8 dereferenceable(8) %15, ptr noundef nonnull @.str.12) #18
  %24 = load ptr, ptr %17, align 8
  %25 = getelementptr inbounds %"class.std::__cxx11::basic_string", ptr %24, i64 %18
  %26 = tail call noundef nonnull align 8 dereferenceable(8) ptr @_ZStlsIcSt11char_traitsIcESaIcEERSt13basic_ostreamIT_T0_ES7_RKNSt7__cxx1112basic_stringIS4_S5_T1_EE(ptr noundef nonnull align 8 dereferenceable(8) %23, ptr noundef nonnull align 8 dereferenceable(32) %25) #18
  %27 = tail call noundef nonnull align 8 dereferenceable(8) ptr @_ZStlsISt11char_traitsIcEERSt13basic_ostreamIcT_ES5_PKc(ptr noundef nonnull align 8 dereferenceable(8) %26, ptr noundef nonnull @.str.13) #18
  br label %28

28:                                               ; preds = %14, %22, %3
  ret void
}